Certificate:
    Data:
        Version: 3 (0x2)
        Serial Number:
            d0:d1:ba:36:e2:26:6d:80
        Signature Algorithm: sha1WithRSAEncryption
        Issuer: C=JP, ST=Tokyo, O=Fujitsu Ltd, OU=Social Cloud Office, CN=Social Cloud CA/emailAddress=nssp-dc@ml.css.fujitsu.com
        Validity
            Not Before: Oct  4 05:47:59 2012 GMT
            Not After : Sep 10 05:47:59 2112 GMT
        Subject: C=JP, ST=Tokyo, O=Fujitsu Ltd, OU=Social Cloud Office, CN=Social Cloud CA/emailAddress=nssp-dc@ml.css.fujitsu.com
        Subject Public Key Info:
            Public Key Algorithm: rsaEncryption
                Public-Key: (2048 bit)
                Modulus:
                    00:c1:14:39:fc:4e:f1:50:62:b5:e3:10:9f:ee:ca:
                    85:77:07:b8:e3:38:b3:a5:c6:47:80:8b:3b:34:bf:
                    6a:24:27:2f:5d:52:31:87:10:38:83:7c:cc:97:37:
                    57:24:b2:7e:42:19:85:03:c8:a4:de:05:8f:53:06:
                    f0:69:fb:e4:c1:35:78:c1:ca:34:56:83:57:7d:4d:
                    bd:b8:9b:f4:3a:8f:7e:45:bc:eb:c6:b3:61:4d:b0:
                    32:1e:41:fb:12:ab:76:57:41:30:a2:c0:e0:f0:8e:
                    06:cb:56:3f:49:b7:f8:fe:6c:5f:1c:d9:3d:7c:8f:
                    05:66:1d:b7:7e:db:f9:35:d2:26:77:46:3b:f5:8d:
                    f5:2e:18:57:0d:b9:ce:cb:65:0b:c9:22:88:c5:b2:
                    a9:68:75:4f:e2:b4:65:d0:bf:8d:28:f1:4c:e0:a2:
                    cf:b8:03:9a:f2:49:76:ff:11:47:a6:94:b7:2c:e2:
                    f6:90:3b:b6:43:0d:f3:fc:83:78:57:00:00:da:21:
                    6b:9b:7e:c0:c0:6a:9d:a2:29:ad:47:81:88:dc:c8:
                    33:1d:cd:4e:cd:cd:4c:be:4e:b1:04:1b:98:e0:08:
                    03:23:a3:9f:a8:96:73:70:13:97:2a:74:5e:40:2e:
                    6e:89:42:a6:fe:7f:d1:7b:e0:4b:c3:81:02:43:bd:
                    33:6b
                Exponent: 65537 (0x10001)
        X509v3 extensions:
            X509v3 Subject Key Identifier: 
                1E:D8:0C:E1:9D:74:3B:AD:56:E0:1C:51:83:25:B4:59:3E:B0:38:E9
            X509v3 Authority Key Identifier: 
                keyid:1E:D8:0C:E1:9D:74:3B:AD:56:E0:1C:51:83:25:B4:59:3E:B0:38:E9

            X509v3 Basic Constraints: 
                CA:TRUE
    Signature Algorithm: sha1WithRSAEncryption
        57:7b:18:08:ff:a3:bc:0f:20:bd:d2:84:71:01:09:6e:14:e2:
        00:4a:e9:e9:4f:0d:f3:8f:dc:6f:75:d9:9d:4d:52:c2:27:14:
        bb:6f:84:d4:98:7b:13:3b:9b:a3:24:96:0c:c8:ce:f0:98:38:
        22:40:2d:23:6f:f4:6f:ec:b2:85:01:02:59:c2:51:bf:a6:20:
        73:77:f5:0d:63:90:29:03:a8:2e:81:f8:68:fa:14:cd:76:74:
        d4:ff:71:a6:c8:55:7e:77:78:ec:9e:cd:01:22:49:0d:1a:9a:
        1d:b3:2b:91:14:06:a5:93:bb:c8:b0:52:85:38:0d:61:7a:9d:
        da:17:fa:5f:ec:6b:1f:4b:da:df:87:5f:71:cf:ef:c3:1b:db:
        a4:a6:2b:05:59:e7:c0:d7:fd:de:56:4e:ff:41:30:b8:ec:02:
        56:9b:76:5e:06:7f:4e:6c:73:a1:91:e4:08:81:df:60:4f:36:
        d7:e1:db:49:73:77:36:48:d5:fd:9d:12:01:4a:d3:ff:73:5b:
        b7:ba:14:3c:af:c0:0d:56:1f:34:04:ff:ca:8c:a7:34:28:e6:
        6c:36:04:5b:31:8b:d8:ad:fb:f5:62:0f:26:16:a8:bb:59:2b:
        77:d0:61:95:2c:2f:e0:15:07:41:e4:f8:fc:02:c4:0c:37:32:
        c2:a9:50:8f
-----BEGIN CERTIFICATE-----
MIIEAzCCAuugAwIBAgIJANDRujbiJm2AMA0GCSqGSIb3DQEBBQUAMIGWMQswCQYD
VQQGEwJKUDEOMAwGA1UECAwFVG9reW8xFDASBgNVBAoMC0Z1aml0c3UgTHRkMRww
GgYDVQQLDBNTb2NpYWwgQ2xvdWQgT2ZmaWNlMRgwFgYDVQQDDA9Tb2NpYWwgQ2xv
dWQgQ0ExKTAnBgkqhkiG9w0BCQEWGm5zc3AtZGNAbWwuY3NzLmZ1aml0c3UuY29t
MCAXDTEyMTAwNDA1NDc1OVoYDzIxMTIwOTEwMDU0NzU5WjCBljELMAkGA1UEBhMC
SlAxDjAMBgNVBAgMBVRva3lvMRQwEgYDVQQKDAtGdWppdHN1IEx0ZDEcMBoGA1UE
CwwTU29jaWFsIENsb3VkIE9mZmljZTEYMBYGA1UEAwwPU29jaWFsIENsb3VkIENB
MSkwJwYJKoZIhvcNAQkBFhpuc3NwLWRjQG1sLmNzcy5mdWppdHN1LmNvbTCCASIw
DQYJKoZIhvcNAQEBBQADggEPADCCAQoCggEBAMEUOfxO8VBiteMQn+7KhXcHuOM4
s6XGR4CLOzS/aiQnL11SMYcQOIN8zJc3VySyfkIZhQPIpN4Fj1MG8Gn75ME1eMHK
NFaDV31Nvbib9DqPfkW868azYU2wMh5B+xKrdldBMKLA4PCOBstWP0m3+P5sXxzZ
PXyPBWYdt37b+TXSJndGO/WN9S4YVw25zstlC8kiiMWyqWh1T+K0ZdC/jSjxTOCi
z7gDmvJJdv8RR6aUtyzi9pA7tkMN8/yDeFcAANoha5t+wMBqnaIprUeBiNzIMx3N
Ts3NTL5OsQQbmOAIAyOjn6iWc3ATlyp0XkAubolCpv5/0XvgS8OBAkO9M2sCAwEA
AaNQME4wHQYDVR0OBBYEFB7YDOGddDutVuAcUYMltFk+sDjpMB8GA1UdIwQYMBaA
FB7YDOGddDutVuAcUYMltFk+sDjpMAwGA1UdEwQFMAMBAf8wDQYJKoZIhvcNAQEF
BQADggEBAFd7GAj/o7wPIL3ShHEBCW4U4gBK6elPDfOP3G912Z1NUsInFLtvhNSY
exM7m6MklgzIzvCYOCJALSNv9G/ssoUBAlnCUb+mIHN39Q1jkCkDqC6B+Gj6FM12
dNT/cabIVX53eOyezQEiSQ0amh2zK5EUBqWTu8iwUoU4DWF6ndoX+l/sax9L2t+H
X3HP78Mb26SmKwVZ58DX/d5WTv9BMLjsAlabdl4Gf05sc6GR5AiB32BPNtfh20lz
dzZI1f2dEgFK0/9zW7e6FDyvwA1WHzQE/8qMpzQo5mw2BFsxi9it+/ViDyYWqLtZ
K3fQYZUsL+AVB0Hk+PwCxAw3MsKpUI8=
-----END CERTIFICATE-----
